; Function Attrs: nounwind uwtable
define dso_local noundef zeroext i1 @listExtensions(ptr noundef %0) local_unnamed_addr #0 {
  %2 = alloca %struct.PQExpBufferData, align 8
  %3 = alloca i32, align 4
  %4 = alloca %struct.PQExpBufferData, align 8
  %5 = alloca %struct.printQueryOpt, align 8
  call void @llvm.lifetime.start.p0(i64 24, ptr nonnull %4) #8
  call void @llvm.lifetime.start.p0(i64 168, ptr nonnull %5) #8
  call void @llvm.memcpy.p0.p0.i64(ptr noundef nonnull align 8 dereferenceable(168) %5, ptr noundef nonnull align 8 dereferenceable(168) getelementptr inbounds nuw (i8, ptr @pset, i64 48), i64 168, i1 false)
  call void @initPQExpBuffer(ptr noundef nonnull %4) #8
  call void (ptr, ptr, ...) @printfPQExpBuffer(ptr noundef nonnull %4, ptr noundef nonnull @.str.500, ptr noundef nonnull @.str.2, ptr noundef nonnull @.str.483, ptr noundef nonnull @.str.1, ptr noundef nonnull @.str.6) #8
  call void @llvm.lifetime.start.p0(i64 24, ptr nonnull %2) #8
  call void @llvm.lifetime.start.p0(i64 4, ptr nonnull %3) #8
  call void @initPQExpBuffer(ptr noundef nonnull %2) #8
  %6 = load ptr, ptr @pset, align 8
  %7 = call zeroext i1 @processSQLNamePattern(ptr noundef %6, ptr noundef nonnull %4, ptr noundef %0, i1 noundef zeroext false, i1 noundef zeroext false, ptr noundef null, ptr noundef nonnull @.str.501, ptr noundef null, ptr noundef null, ptr noundef nonnull %2, ptr noundef nonnull %3) #8
  %8 = load i32, ptr %3, align 4
  %.not19.i = icmp slt i32 %8, 1
  br i1 %.not19.i, label %10, label %9

9:                                                ; preds = %1
  call void (i32, i32, ptr, ...) @pg_log_generic(i32 noundef 4, i32 noundef 0, ptr noundef nonnull @.str.912, ptr noundef %0) #8
  call void @termPQExpBuffer(ptr noundef nonnull %2) #8
  call void @llvm.lifetime.end.p0(i64 4, ptr nonnull %3) #8
  call void @llvm.lifetime.end.p0(i64 24, ptr nonnull %2) #8
  call void @termPQExpBuffer(ptr noundef nonnull %4) #8
  br label %18

10:                                               ; preds = %1
  call void @termPQExpBuffer(ptr noundef nonnull %2) #8
  call void @llvm.lifetime.end.p0(i64 4, ptr nonnull %3) #8
  call void @llvm.lifetime.end.p0(i64 24, ptr nonnull %2) #8
  call void @appendPQExpBufferStr(ptr noundef nonnull %4, ptr noundef nonnull @.str.23) #8
  %11 = load ptr, ptr %4, align 8
  %12 = call ptr @PSQLexec(ptr noundef %11) #8
  call void @termPQExpBuffer(ptr noundef nonnull %4) #8
  %.not = icmp eq ptr %12, null
  br i1 %.not, label %18, label %13

13:                                               ; preds = %10
  %14 = getelementptr inbounds nuw i8, ptr %5, i64 128
  store ptr @.str.502, ptr %14, align 8
  %15 = getelementptr inbounds nuw i8, ptr %5, i64 144
  store i8 1, ptr %15, align 8
  %16 = load ptr, ptr getelementptr inbounds nuw (i8, ptr @pset, i64 16), align 8
  %17 = load ptr, ptr getelementptr inbounds nuw (i8, ptr @pset, i64 376), align 8
  call void @printQuery(ptr noundef nonnull %12, ptr noundef nonnull %5, ptr noundef %16, i1 noundef zeroext false, ptr noundef %17) #8
  call void @PQclear(ptr noundef nonnull %12) #8
  br label %18

18:                                               ; preds = %10, %13, %9
  %.0 = phi i1 [ true, %13 ], [ false, %9 ], [ false, %10 ]
  call void @llvm.lifetime.end.p0(i64 168, ptr nonnull %5) #8
  call void @llvm.lifetime.end.p0(i64 24, ptr nonnull %4) #8
  ret i1 %.0
}